#include <math.h>
#include <stdio.h>
#include <stdlib.h>
#include <string.h>

int main()
{
	int a,b,c,d,n;
	scanf("%d",&n);
while (n>0) {
   printf("%d",n%10);
   n=n/10;
}

}
